; Function Attrs: nounwind uwtable
define void @zend_llist_destroy(ptr nocapture noundef %0) local_unnamed_addr #1 {
  %2 = load ptr, ptr %0, align 8
  %.not16 = icmp eq ptr %2, null
  br i1 %.not16, label %._crit_edge, label %.lr.ph

.lr.ph:                                           ; preds = %1
  %3 = getelementptr inbounds i8, ptr %0, i64 32
  %4 = getelementptr inbounds i8, ptr %0, i64 40
  br label %5

5:                                                ; preds = %.lr.ph, %14
  %.017 = phi ptr [ %2, %.lr.ph ], [ %6, %14 ]
  %6 = load ptr, ptr %.017, align 8
  %7 = load ptr, ptr %3, align 8
  %.not14 = icmp eq ptr %7, null
  br i1 %.not14, label %10, label %8

8:                                                ; preds = %5
  %9 = getelementptr inbounds i8, ptr %.017, i64 16
  tail call void %7(ptr noundef nonnull %9) #13
  br label %10

10:                                               ; preds = %8, %5
  %11 = load i8, ptr %4, align 8
  %.not15 = icmp eq i8 %11, 0
  br i1 %.not15, label %13, label %12

12:                                               ; preds = %10
  tail call void @free(ptr noundef nonnull %.017) #13
  br label %14

13:                                               ; preds = %10
  tail call void @_efree(ptr noundef nonnull %.017) #13
  br label %14

14:                                               ; preds = %13, %12
  %.not = icmp eq ptr %6, null
  br i1 %.not, label %._crit_edge, label %5

._crit_edge:                                      ; preds = %14, %1
  tail call void @llvm.memset.p0.i64(ptr noundef nonnull align 8 dereferenceable(24) %0, i8 0, i64 24, i1 false)
  ret void
}